; Function Attrs: mustprogress nounwind uwtable
define dso_local void @_ZN4llvm10MCStreamer12emitIntValueEmj(ptr noundef nonnull align 8 dereferenceable(288) %0, i64 noundef %1, i32 noundef %2) unnamed_addr #0 align 2 {
  %4 = alloca i64, align 8
  %5 = getelementptr inbounds nuw i8, ptr %0, i64 8
  %6 = load ptr, ptr %5, align 8
  %7 = getelementptr inbounds nuw i8, ptr %6, i64 152
  %8 = load ptr, ptr %7, align 8
  %9 = getelementptr inbounds nuw i8, ptr %8, i64 16
  %10 = load i8, ptr %9, align 8
  %11 = trunc i8 %10 to i1
  %12 = tail call i64 @llvm.bswap.i64(i64 %1)
  %spec.select.i = select i1 %11, i64 %1, i64 %12
  store i64 %spec.select.i, ptr %4, align 8
  %13 = sub i32 8, %2
  %14 = zext i32 %13 to i64
  %15 = select i1 %11, i64 0, i64 %14
  %16 = getelementptr inbounds i8, ptr %4, i64 %15
  %17 = zext i32 %2 to i64
  %18 = load ptr, ptr %0, align 8
  %19 = getelementptr inbounds i8, ptr %18, i64 496
  %20 = load ptr, ptr %19, align 8
  call void %20(ptr noundef nonnull align 8 dereferenceable(288) %0, ptr nonnull %16, i64 %17) #23
  ret void
}